(dp1
S'failed'
p2
(lp3
S'27'
p4
aS'86'
p5
asS'source_names'
p6
(lp7
S'conans.test'
p8
asS'ids'
p9
(dp10
I1
(S'/mnt/c/work/projects/conan/conans/test/command/build_test.py'
S'conan.conans.test.command.build_test'
p11
S'ConanBuildTest.build_test'
tp12
sI2
(S'/mnt/c/work/projects/conan/conans/test/command/export_dirty_test.py'
S'conan.conans.test.command.export_dirty_test'
p13
S'ExportDirtyTest.test_export_remove'
tp14
sI3
(S'/mnt/c/work/projects/conan/conans/test/command/export_dirty_test.py'
g13
S'ExportDirtyTest.test_install_remove'
tp15
sI4
(S'/mnt/c/work/projects/conan/conans/test/command/export_path_test.py'
S'conan.conans.test.command.export_path_test'
p16
S'ExportPathTest.test_basic'
tp17
sI5
(S'/mnt/c/work/projects/conan/conans/test/command/export_path_test.py'
g16
S'ExportPathTest.test_combined'
tp18
sI6
(S'/mnt/c/work/projects/conan/conans/test/command/export_path_test.py'
g16
S'ExportPathTest.test_path'
tp19
sI7
(S'/mnt/c/work/projects/conan/conans/test/command/export_path_test.py'
g16
S'ExportPathTest.test_rel_path'
tp20
sI8
(S'/mnt/c/work/projects/conan/conans/test/command/export_test.py'
S'conan.conans.test.command.export_test'
p21
S'ExportSettingsTest.test_basic'
tp22
sI9
(S'/mnt/c/work/projects/conan/conans/test/command/export_test.py'
g21
S'ExportTest.test_basic'
tp23
sI10
(S'/mnt/c/work/projects/conan/conans/test/command/export_test.py'
g21
S'ExportTest.test_case_sensitive'
tp24
sI11
(S'/mnt/c/work/projects/conan/conans/test/command/export_test.py'
g21
S'ExportTest.test_export_a_new_version'
tp25
sI12
(S'/mnt/c/work/projects/conan/conans/test/command/export_test.py'
g21
S'ExportTest.test_export_filter'
tp26
sI13
(S'/mnt/c/work/projects/conan/conans/test/command/export_test.py'
g21
S'ExportTest.test_export_the_same_code'
tp27
sI14
(S'/mnt/c/work/projects/conan/conans/test/command/help_test.py'
S'conan.conans.test.command.help_test'
p28
S'BasicTest.help_test'
tp29
sI15
(S'/mnt/c/work/projects/conan/conans/test/command/imports_test.py'
S'conan.conans.test.command.imports_test'
p30
S'ImportsTest.imports_env_var_test'
tp31
sI16
(S'/mnt/c/work/projects/conan/conans/test/command/imports_test.py'
g30
S'ImportsTest.imports_error_test'
tp32
sI17
(S'/mnt/c/work/projects/conan/conans/test/command/imports_test.py'
g30
S'ImportsTest.imports_filename_test'
tp33
sI18
(S'/mnt/c/work/projects/conan/conans/test/command/imports_test.py'
g30
S'ImportsTest.imports_global_path_test'
tp34
sI19
(S'/mnt/c/work/projects/conan/conans/test/command/imports_test.py'
g30
S'ImportsTest.imports_test'
tp35
sI20
(S'/mnt/c/work/projects/conan/conans/test/command/imports_test.py'
g30
S'ImportsTest.install_manifest_test'
tp36
sI21
(S'/mnt/c/work/projects/conan/conans/test/command/imports_test.py'
g30
S'ImportsTest.undo_install_manifest_test'
tp37
sI22
(S'/mnt/c/work/projects/conan/conans/test/command/info_options_test.py'
S'conan.conans.test.command.info_options_test'
p38
S'InfoOptionsTest.info_options_test'
tp39
sI23
(S'/mnt/c/work/projects/conan/conans/test/command/info_test.py'
S'conan.conans.test.command.info_test'
p40
S'InfoTest.build_order_test'
tp41
sI24
(S'/mnt/c/work/projects/conan/conans/test/command/info_test.py'
g40
S'InfoTest.diamond_build_order_test'
tp42
sI25
(S'/mnt/c/work/projects/conan/conans/test/command/info_test.py'
g40
S'InfoTest.only_names_test'
tp43
sI26
(S'/mnt/c/work/projects/conan/conans/test/command/info_test.py'
g40
S'InfoTest.reuse_test'
tp44
sI27
(S'/mnt/c/work/projects/conan/conans/test/command/install_subfolder_test.py'
S'conan.conans.test.command.install_subfolder_test'
p45
S'InstallSubfolderTest.reuse_test'
tp46
sI28
(S'/mnt/c/work/projects/conan/conans/test/command/install_test.py'
S'conan.conans.test.command.install_test'
p47
S'InstallTest.change_option_txt_test'
tp48
sI29
(S'/mnt/c/work/projects/conan/conans/test/command/install_test.py'
g47
S'InstallTest.inverse_upper_option_test'
tp49
sI30
(S'/mnt/c/work/projects/conan/conans/test/command/install_test.py'
g47
S'InstallTest.reuse_test'
tp50
sI31
(S'/mnt/c/work/projects/conan/conans/test/command/install_test.py'
g47
S'InstallTest.upper_option_test'
tp51
sI32
(S'/mnt/c/work/projects/conan/conans/test/command/install_test.py'
g47
S'InstallTest.upper_option_txt_test'
tp52
sI33
(S'/mnt/c/work/projects/conan/conans/test/command/install_test.py'
g47
S'InstallTest.warn_bad_os_test'
tp53
sI34
(S'/mnt/c/work/projects/conan/conans/test/command/new_test.py'
S'conan.conans.test.command.new_test'
p54
S'NewTest.new_dash_test'
tp55
sI35
(S'/mnt/c/work/projects/conan/conans/test/command/new_test.py'
g54
S'NewTest.new_header_test'
tp56
sI36
(S'/mnt/c/work/projects/conan/conans/test/command/new_test.py'
g54
S'NewTest.new_test'
tp57
sI37
(S'/mnt/c/work/projects/conan/conans/test/command/new_test.py'
g54
S'NewTest.new_without_test'
tp58
sI38
(S'/mnt/c/work/projects/conan/conans/test/command/profile_test.py'
S'conan.conans.test.command.profile_test'
p59
S'ProfileTest.empty_test'
tp60
sI39
(S'/mnt/c/work/projects/conan/conans/test/command/profile_test.py'
g59
S'ProfileTest.list_test'
tp61
sI40
(S'/mnt/c/work/projects/conan/conans/test/command/profile_test.py'
g59
S'ProfileTest.show_test'
tp62
sI41
(S'/mnt/c/work/projects/conan/conans/test/command/remote_test.py'
S'conan.conans.test.command.remote_test'
p63
S'RemoteTest.basic_refs_test'
tp64
sI42
(S'/mnt/c/work/projects/conan/conans/test/command/remote_test.py'
g63
S'RemoteTest.basic_test'
tp65
sI43
(S'/mnt/c/work/projects/conan/conans/test/command/remote_test.py'
g63
S'RemoteTest.duplicated_error_tests'
tp66
sI44
(S'/mnt/c/work/projects/conan/conans/test/command/remote_test.py'
g63
S'RemoteTest.errors_test'
tp67
sI45
(S'/mnt/c/work/projects/conan/conans/test/command/remote_test.py'
g63
S'RemoteTest.verify_ssl_error_test'
tp68
sI46
(S'/mnt/c/work/projects/conan/conans/test/command/remote_test.py'
g63
S'RemoteTest.verify_ssl_test'
tp69
sI47
(S'/mnt/c/work/projects/conan/conans/test/command/remove_empty_dirs_test.py'
S'conan.conans.test.command.remove_empty_dirs_test'
p70
S'RemoveEmptyDirsTest.basic_test'
tp71
sI48
(S'/mnt/c/work/projects/conan/conans/test/command/remove_empty_dirs_test.py'
g70
S'RemoveEmptyDirsTest.shared_folder_test'
tp72
sI49
(S'/mnt/c/work/projects/conan/conans/test/command/remove_test.py'
S'conan.conans.test.command.remove_test'
p73
S'RemoveTest.basic_mocked_test'
tp74
sI50
(S'/mnt/c/work/projects/conan/conans/test/command/remove_test.py'
g73
S'RemoveTest.basic_packages_test'
tp75
sI51
(S'/mnt/c/work/projects/conan/conans/test/command/remove_test.py'
g73
S'RemoveTest.basic_test'
tp76
sI52
(S'/mnt/c/work/projects/conan/conans/test/command/remove_test.py'
g73
S'RemoveTest.builds_test'
tp77
sI53
(S'/mnt/c/work/projects/conan/conans/test/command/remove_test.py'
g73
S'RemoveTest.reject_removal_test'
tp78
sI54
(S'/mnt/c/work/projects/conan/conans/test/command/remove_test.py'
g73
S'RemoveTest.remote_build_error_test'
tp79
sI55
(S'/mnt/c/work/projects/conan/conans/test/command/remove_test.py'
g73
S'RemoveTest.remote_conans_test'
tp80
sI56
(S'/mnt/c/work/projects/conan/conans/test/command/remove_test.py'
g73
S'RemoveTest.remote_packages_test'
tp81
sI57
(S'/mnt/c/work/projects/conan/conans/test/command/remove_test.py'
g73
S'RemoveTest.remove_remote_specific_package_test'
tp82
sI58
(S'/mnt/c/work/projects/conan/conans/test/command/remove_test.py'
g73
S'RemoveTest.remove_remote_specific_packages_test'
tp83
sI59
(S'/mnt/c/work/projects/conan/conans/test/command/remove_test.py'
g73
S'RemoveTest.remove_specific_build_test'
tp84
sI60
(S'/mnt/c/work/projects/conan/conans/test/command/remove_test.py'
g73
S'RemoveTest.remove_specific_builds_test'
tp85
sI61
(S'/mnt/c/work/projects/conan/conans/test/command/remove_test.py'
g73
S'RemoveTest.remove_specific_package_test'
tp86
sI62
(S'/mnt/c/work/projects/conan/conans/test/command/remove_test.py'
g73
S'RemoveTest.remove_specific_packages_test'
tp87
sI63
(S'/mnt/c/work/projects/conan/conans/test/command/remove_test.py'
g73
S'RemoveTest.src_test'
tp88
sI64
(S'/mnt/c/work/projects/conan/conans/test/command/search_test.py'
S'conan.conans.test.command.search_test'
p89
S'SearchTest.package_search_complex_queries_test'
tp90
sI65
(S'/mnt/c/work/projects/conan/conans/test/command/search_test.py'
g89
S'SearchTest.package_search_nonescaped_characters_test'
tp91
sI66
(S'/mnt/c/work/projects/conan/conans/test/command/search_test.py'
g89
S'SearchTest.package_search_properties_filter_test'
tp92
sI67
(S'/mnt/c/work/projects/conan/conans/test/command/search_test.py'
g89
S'SearchTest.package_search_with_empty_query_test'
tp93
sI68
(S'/mnt/c/work/projects/conan/conans/test/command/search_test.py'
g89
S'SearchTest.package_search_with_invalid_query_test'
tp94
sI69
(S'/mnt/c/work/projects/conan/conans/test/command/search_test.py'
g89
S'SearchTest.package_search_with_invalid_reference_test'
tp95
sI70
(S'/mnt/c/work/projects/conan/conans/test/command/search_test.py'
g89
S'SearchTest.recipe_pattern_search_test'
tp96
sI71
(S'/mnt/c/work/projects/conan/conans/test/command/search_test.py'
g89
S'SearchTest.recipe_search_test'
tp97
sI72
(S'/mnt/c/work/projects/conan/conans/test/command/search_test.py'
g89
S'SearchTest.search_with_no_local_test'
tp98
sI73
(S'/mnt/c/work/projects/conan/conans/test/command/source_test.py'
S'conan.conans.test.command.source_test'
p99
S'SourceTest.basic_source_test'
tp100
sI74
(S'/mnt/c/work/projects/conan/conans/test/command/source_test.py'
g99
S'SourceTest.local_source_test'
tp101
sI75
(S'/mnt/c/work/projects/conan/conans/test/command/upload_test.py'
S'conan.conans.test.command.upload_test'
p102
S'UploadTest.invalid_reference_error_test'
tp103
sI76
(S'/mnt/c/work/projects/conan/conans/test/command/upload_test.py'
g102
S'UploadTest.non_existing_package_error_test'
tp104
sI77
(S'/mnt/c/work/projects/conan/conans/test/command/upload_test.py'
g102
S'UploadTest.non_existing_recipe_error_test'
tp105
sI78
(S'/mnt/c/work/projects/conan/conans/test/command/upload_test.py'
g102
S'UploadTest.not_existing_error_test'
tp106
sI79
(S'/mnt/c/work/projects/conan/conans/test/command/upload_test.py'
g102
S'UploadTest.not_reupload_test'
tp107
sI80
(S'/mnt/c/work/projects/conan/conans/test/command/user_test.py'
S'conan.conans.test.command.user_test'
p108
S'UserTest.test_clean'
tp109
sI81
(S'/mnt/c/work/projects/conan/conans/test/command/user_test.py'
g108
S'UserTest.test_command_user'
tp110
sI82
(S'/mnt/c/work/projects/conan/conans/test/command/user_test.py'
g108
S'UserTest.test_command_user_with_password'
tp111
sI83
(S'/mnt/c/work/projects/conan/conans/test/command/user_test.py'
g108
S'UserTest.test_command_user_with_password_spaces'
tp112
sI84
(S'/mnt/c/work/projects/conan/conans/test/command/user_test.py'
g108
S'UserTest.test_with_remote_no_connect'
tp113
sI85
(S'/mnt/c/work/projects/conan/conans/test/generators/cmake_test.py'
S'conan.conans.test.generators.cmake_test'
p114
S'CMakeGeneratorTest.aux_cmake_test_setup_test'
tp115
sI86
(S'/mnt/c/work/projects/conan/conans/test/generators/cmake_test.py'
g114
S'CMakeGeneratorTest.variables_setup_test'
tp116
sI87
(S'/mnt/c/work/projects/conan/conans/test/generators/scons_test.py'
S'conan.conans.test.generators.scons_test'
p117
S'SConsGeneratorTest.variables_setup_test'
tp118
sI88
(S'/mnt/c/work/projects/conan/conans/test/integration/basic_build_test.py'
S'conan.conans.test.integration.basic_build_test'
p119
S'BasicBuildTest.build_cmake_test'
tp120
sI89
(S'/mnt/c/work/projects/conan/conans/test/integration/basic_build_test.py'
g119
S'BasicBuildTest.build_default_test'
tp121
ss.